target datalayout = "e-m:e-p270:32:32-p271:32:32-p272:64:64-i64:64-i128:128-f80:128-n8:16:32:64-S128"
target triple = "x86_64-pc-linux-gnu"

%struct.commit = type { %struct.object, i64, ptr, ptr, i32 }
%struct.object = type { i32, %struct.object_id }
%struct.object_id = type { [32 x i8], i32 }
%struct.repository = type { ptr, ptr, ptr, ptr, ptr, %struct.strmap, %struct.strmap, %struct.repo_path_cache, ptr, ptr, ptr, ptr, %struct.repo_settings, ptr, ptr, ptr, ptr, ptr, ptr, i32, i32, i32, ptr, ptr, i32, i32, i8 }
%struct.strmap = type { %struct.hashmap, ptr, i8 }
%struct.hashmap = type { ptr, ptr, ptr, i32, i32, i32, i32, i8 }
%struct.repo_path_cache = type { ptr, ptr, ptr, ptr, ptr, ptr, ptr }
%struct.repo_settings = type { i32, i32, i32, i32, i32, i32, i32, i32, i32, i32, i32, i32, ptr, i32, i32, i32, i32, i32, i32, i32, i64, i64, i64 }
%struct.parsed_object_pool = type { ptr, ptr, i32, i32, ptr, ptr, ptr, ptr, ptr, ptr, i32, i32, i32, ptr, ptr, i32, i32, ptr }
%struct.commit_graft = type { %struct.object_id, i32, [0 x %struct.object_id] }
%struct.commit_list = type { ptr, ptr }

@.str.37 = private unnamed_addr constant [27 x i8] c"size_t overflow: %lu * %lu\00", align 1

; Function Attrs: nounwind uwtable
define dso_local ptr @pop_commit(ptr noundef %0) #0 {
  %2 = alloca ptr, align 8
  %3 = alloca ptr, align 8
  %4 = alloca ptr, align 8
  store ptr %0, ptr %2, align 8, !tbaa !99
  call void @llvm.lifetime.start.p0(i64 8, ptr %3) #11
  %5 = load ptr, ptr %2, align 8, !tbaa !99
  %6 = load ptr, ptr %5, align 8, !tbaa !58
  store ptr %6, ptr %3, align 8, !tbaa !58
  call void @llvm.lifetime.start.p0(i64 8, ptr %4) #11
  %7 = load ptr, ptr %3, align 8, !tbaa !58
  %8 = icmp ne ptr %7, null
  br i1 %8, label %9, label %13

9:                                                ; preds = %1
  %10 = load ptr, ptr %3, align 8, !tbaa !58
  %11 = getelementptr inbounds nuw %struct.commit_list, ptr %10, i32 0, i32 0
  %12 = load ptr, ptr %11, align 8, !tbaa !105
  br label %14

13:                                               ; preds = %1
  br label %14

14:                                               ; preds = %13, %9
  %15 = phi ptr [ %12, %9 ], [ null, %13 ]
  store ptr %15, ptr %4, align 8, !tbaa !17
  %16 = load ptr, ptr %3, align 8, !tbaa !58
  %17 = icmp ne ptr %16, null
  br i1 %17, label %18, label %24

18:                                               ; preds = %14
  %19 = load ptr, ptr %3, align 8, !tbaa !58
  %20 = getelementptr inbounds nuw %struct.commit_list, ptr %19, i32 0, i32 1
  %21 = load ptr, ptr %20, align 8, !tbaa !107
  %22 = load ptr, ptr %2, align 8, !tbaa !99
  store ptr %21, ptr %22, align 8, !tbaa !58
  %23 = load ptr, ptr %3, align 8, !tbaa !58
  call void @free(ptr noundef %23) #11
  br label %24

24:                                               ; preds = %18, %14
  %25 = load ptr, ptr %4, align 8, !tbaa !17
  call void @llvm.lifetime.end.p0(i64 8, ptr %4) #11
  call void @llvm.lifetime.end.p0(i64 8, ptr %3) #11
  ret ptr %25
}

; Function Attrs: nounwind uwtable
define dso_local void @free_commit_list(ptr noundef %0) #0 {
  %2 = alloca ptr, align 8
  store ptr %0, ptr %2, align 8, !tbaa !58
  br label %3

3:                                                ; preds = %6, %1
  %4 = load ptr, ptr %2, align 8, !tbaa !58
  %5 = icmp ne ptr %4, null
  br i1 %5, label %6, label %8

6:                                                ; preds = %3
  %7 = call ptr @pop_commit(ptr noundef %2)
  br label %3, !llvm.loop !59

8:                                                ; preds = %3
  ret void
}

; Function Attrs: nounwind uwtable
define dso_local ptr @lookup_commit(ptr noundef %0, ptr noundef %1) #0 {
  %3 = alloca ptr, align 8
  %4 = alloca ptr, align 8
  %5 = alloca ptr, align 8
  %6 = alloca ptr, align 8
  %7 = alloca i32, align 4
  store ptr %0, ptr %4, align 8, !tbaa !4
  store ptr %1, ptr %5, align 8, !tbaa !9
  call void @llvm.lifetime.start.p0(i64 8, ptr %6) #11
  %8 = load ptr, ptr %4, align 8, !tbaa !4
  %9 = load ptr, ptr %5, align 8, !tbaa !9
  %10 = call ptr @lookup_object(ptr noundef %8, ptr noundef %9)
  store ptr %10, ptr %6, align 8, !tbaa !13
  %11 = load ptr, ptr %6, align 8, !tbaa !13
  %12 = icmp ne ptr %11, null
  br i1 %12, label %19, label %13

13:                                               ; preds = %2
  %14 = load ptr, ptr %4, align 8, !tbaa !4
  %15 = load ptr, ptr %5, align 8, !tbaa !9
  %16 = load ptr, ptr %4, align 8, !tbaa !4
  %17 = call ptr @alloc_commit_node(ptr noundef %16)
  %18 = call ptr @create_object(ptr noundef %14, ptr noundef %15, ptr noundef %17)
  store ptr %18, ptr %3, align 8
  store i32 1, ptr %7, align 4
  br label %22

19:                                               ; preds = %2
  %20 = load ptr, ptr %6, align 8, !tbaa !13
  %21 = call ptr @object_as_type(ptr noundef %20, i32 noundef 1, i32 noundef 0)
  store ptr %21, ptr %3, align 8
  store i32 1, ptr %7, align 4
  br label %22

22:                                               ; preds = %19, %13
  call void @llvm.lifetime.end.p0(i64 8, ptr %6) #11
  %23 = load ptr, ptr %3, align 8
  ret ptr %23
}

; Function Attrs: nounwind uwtable
define dso_local void @unparse_commit(ptr noundef %0, ptr noundef %1) #0 {
  %3 = alloca ptr, align 8
  %4 = alloca ptr, align 8
  %5 = alloca ptr, align 8
  %6 = alloca i32, align 4
  store ptr %0, ptr %3, align 8, !tbaa !4
  store ptr %1, ptr %4, align 8, !tbaa !9
  call void @llvm.lifetime.start.p0(i64 8, ptr %5) #11
  %7 = load ptr, ptr %3, align 8, !tbaa !4
  %8 = load ptr, ptr %4, align 8, !tbaa !9
  %9 = call ptr @lookup_commit(ptr noundef %7, ptr noundef %8)
  store ptr %9, ptr %5, align 8, !tbaa !17
  %10 = load ptr, ptr %5, align 8, !tbaa !17
  %11 = getelementptr inbounds nuw %struct.commit, ptr %10, i32 0, i32 0
  %12 = load i32, ptr %11, align 8
  %13 = and i32 %12, 1
  %14 = icmp ne i32 %13, 0
  br i1 %14, label %16, label %15

15:                                               ; preds = %2
  store i32 1, ptr %6, align 4
  br label %27

16:                                               ; preds = %2
  %17 = load ptr, ptr %5, align 8, !tbaa !17
  %18 = getelementptr inbounds nuw %struct.commit, ptr %17, i32 0, i32 2
  %19 = load ptr, ptr %18, align 8, !tbaa !52
  call void @free_commit_list(ptr noundef %19)
  %20 = load ptr, ptr %5, align 8, !tbaa !17
  %21 = getelementptr inbounds nuw %struct.commit, ptr %20, i32 0, i32 2
  store ptr null, ptr %21, align 8, !tbaa !52
  %22 = load ptr, ptr %5, align 8, !tbaa !17
  %23 = getelementptr inbounds nuw %struct.commit, ptr %22, i32 0, i32 0
  %24 = load i32, ptr %23, align 8
  %25 = and i32 %24, -2
  %26 = or i32 %25, 0
  store i32 %26, ptr %23, align 8
  store i32 0, ptr %6, align 4
  br label %27

27:                                               ; preds = %16, %15
  call void @llvm.lifetime.end.p0(i64 8, ptr %5) #11
  %28 = load i32, ptr %6, align 4
  switch i32 %28, label %30 [
    i32 0, label %29
    i32 1, label %29
  ]

29:                                               ; preds = %27, %27
  ret void

30:                                               ; preds = %27
  unreachable
}

; Function Attrs: inlinehint nounwind uwtable
define internal i64 @st_mult(i64 noundef %0, i64 noundef %1) #4 {
  %3 = alloca i64, align 8
  %4 = alloca i64, align 8
  store i64 %0, ptr %3, align 8, !tbaa !47
  store i64 %1, ptr %4, align 8, !tbaa !47
  %5 = load i64, ptr %3, align 8, !tbaa !47
  %6 = icmp ne i64 %5, 0
  br i1 %6, label %7, label %15

7:                                                ; preds = %2
  %8 = load i64, ptr %4, align 8, !tbaa !47
  %9 = load i64, ptr %3, align 8, !tbaa !47
  %10 = udiv i64 -1, %9
  %11 = icmp ugt i64 %8, %10
  br i1 %11, label %12, label %15

12:                                               ; preds = %7
  %13 = load i64, ptr %3, align 8, !tbaa !47
  %14 = load i64, ptr %4, align 8, !tbaa !47
  call void (ptr, ...) @die(ptr noundef @.str.37, i64 noundef %13, i64 noundef %14) #12
  unreachable

15:                                               ; preds = %7, %2
  %16 = load i64, ptr %3, align 8, !tbaa !47
  %17 = load i64, ptr %4, align 8, !tbaa !47
  %18 = mul i64 %16, %17
  ret i64 %18
}

; Function Attrs: nounwind uwtable
define dso_local i32 @commit_graft_pos(ptr noundef %0, ptr noundef %1) #0 {
  %3 = alloca ptr, align 8
  %4 = alloca ptr, align 8
  store ptr %0, ptr %3, align 8, !tbaa !4
  store ptr %1, ptr %4, align 8, !tbaa !9
  %5 = load ptr, ptr %4, align 8, !tbaa !9
  %6 = load ptr, ptr %3, align 8, !tbaa !4
  %7 = getelementptr inbounds nuw %struct.repository, ptr %6, i32 0, i32 3
  %8 = load ptr, ptr %7, align 8, !tbaa !20
  %9 = getelementptr inbounds nuw %struct.parsed_object_pool, ptr %8, i32 0, i32 9
  %10 = load ptr, ptr %9, align 8, !tbaa !39
  %11 = load ptr, ptr %3, align 8, !tbaa !4
  %12 = getelementptr inbounds nuw %struct.repository, ptr %11, i32 0, i32 3
  %13 = load ptr, ptr %12, align 8, !tbaa !20
  %14 = getelementptr inbounds nuw %struct.parsed_object_pool, ptr %13, i32 0, i32 11
  %15 = load i32, ptr %14, align 4, !tbaa !46
  %16 = sext i32 %15 to i64
  %17 = call i32 @oid_pos(ptr noundef %5, ptr noundef %10, i64 noundef %16, ptr noundef @commit_graft_oid_access)
  ret i32 %17
}

; Function Attrs: nounwind uwtable
define dso_local i32 @register_commit_graft(ptr noundef %0, ptr noundef %1, i32 noundef %2) #0 {
  %4 = alloca i32, align 4
  %5 = alloca ptr, align 8
  %6 = alloca ptr, align 8
  %7 = alloca i32, align 4
  %8 = alloca i32, align 4
  %9 = alloca i32, align 4
  store ptr %0, ptr %5, align 8, !tbaa !4
  store ptr %1, ptr %6, align 8, !tbaa !50
  store i32 %2, ptr %7, align 4, !tbaa !11
  call void @llvm.lifetime.start.p0(i64 4, ptr %8) #11
  %10 = load ptr, ptr %5, align 8, !tbaa !4
  %11 = load ptr, ptr %6, align 8, !tbaa !50
  %12 = getelementptr inbounds nuw %struct.commit_graft, ptr %11, i32 0, i32 0
  %13 = call i32 @commit_graft_pos(ptr noundef %10, ptr noundef %12)
  store i32 %13, ptr %8, align 4, !tbaa !11
  %14 = load i32, ptr %8, align 4, !tbaa !11
  %15 = icmp sle i32 0, %14
  br i1 %15, label %16, label %41

16:                                               ; preds = %3
  %17 = load i32, ptr %7, align 4, !tbaa !11
  %18 = icmp ne i32 %17, 0
  br i1 %18, label %19, label %21

19:                                               ; preds = %16
  %20 = load ptr, ptr %6, align 8, !tbaa !50
  call void @free(ptr noundef %20) #11
  br label %40

21:                                               ; preds = %16
  %22 = load ptr, ptr %5, align 8, !tbaa !4
  %23 = getelementptr inbounds nuw %struct.repository, ptr %22, i32 0, i32 3
  %24 = load ptr, ptr %23, align 8, !tbaa !20
  %25 = getelementptr inbounds nuw %struct.parsed_object_pool, ptr %24, i32 0, i32 9
  %26 = load ptr, ptr %25, align 8, !tbaa !39
  %27 = load i32, ptr %8, align 4, !tbaa !11
  %28 = sext i32 %27 to i64
  %29 = getelementptr inbounds ptr, ptr %26, i64 %28
  %30 = load ptr, ptr %29, align 8, !tbaa !50
  call void @free(ptr noundef %30) #11
  %31 = load ptr, ptr %6, align 8, !tbaa !50
  %32 = load ptr, ptr %5, align 8, !tbaa !4
  %33 = getelementptr inbounds nuw %struct.repository, ptr %32, i32 0, i32 3
  %34 = load ptr, ptr %33, align 8, !tbaa !20
  %35 = getelementptr inbounds nuw %struct.parsed_object_pool, ptr %34, i32 0, i32 9
  %36 = load ptr, ptr %35, align 8, !tbaa !39
  %37 = load i32, ptr %8, align 4, !tbaa !11
  %38 = sext i32 %37 to i64
  %39 = getelementptr inbounds ptr, ptr %36, i64 %38
  store ptr %31, ptr %39, align 8, !tbaa !50
  br label %40

40:                                               ; preds = %21, %19
  store i32 1, ptr %4, align 4
  store i32 1, ptr %9, align 4
  br label %173

41:                                               ; preds = %3
  %42 = load i32, ptr %8, align 4, !tbaa !11
  %43 = sub nsw i32 0, %42
  %44 = sub nsw i32 %43, 1
  store i32 %44, ptr %8, align 4, !tbaa !11
  br label %45

45:                                               ; preds = %41
  %46 = load ptr, ptr %5, align 8, !tbaa !4
  %47 = getelementptr inbounds nuw %struct.repository, ptr %46, i32 0, i32 3
  %48 = load ptr, ptr %47, align 8, !tbaa !20
  %49 = getelementptr inbounds nuw %struct.parsed_object_pool, ptr %48, i32 0, i32 11
  %50 = load i32, ptr %49, align 4, !tbaa !46
  %51 = add nsw i32 %50, 1
  %52 = load ptr, ptr %5, align 8, !tbaa !4
  %53 = getelementptr inbounds nuw %struct.repository, ptr %52, i32 0, i32 3
  %54 = load ptr, ptr %53, align 8, !tbaa !20
  %55 = getelementptr inbounds nuw %struct.parsed_object_pool, ptr %54, i32 0, i32 10
  %56 = load i32, ptr %55, align 8, !tbaa !61
  %57 = icmp sgt i32 %51, %56
  br i1 %57, label %58, label %116

58:                                               ; preds = %45
  %59 = load ptr, ptr %5, align 8, !tbaa !4
  %60 = getelementptr inbounds nuw %struct.repository, ptr %59, i32 0, i32 3
  %61 = load ptr, ptr %60, align 8, !tbaa !20
  %62 = getelementptr inbounds nuw %struct.parsed_object_pool, ptr %61, i32 0, i32 10
  %63 = load i32, ptr %62, align 8, !tbaa !61
  %64 = add nsw i32 %63, 16
  %65 = mul nsw i32 %64, 3
  %66 = sdiv i32 %65, 2
  %67 = load ptr, ptr %5, align 8, !tbaa !4
  %68 = getelementptr inbounds nuw %struct.repository, ptr %67, i32 0, i32 3
  %69 = load ptr, ptr %68, align 8, !tbaa !20
  %70 = getelementptr inbounds nuw %struct.parsed_object_pool, ptr %69, i32 0, i32 11
  %71 = load i32, ptr %70, align 4, !tbaa !46
  %72 = add nsw i32 %71, 1
  %73 = icmp slt i32 %66, %72
  br i1 %73, label %74, label %85

74:                                               ; preds = %58
  %75 = load ptr, ptr %5, align 8, !tbaa !4
  %76 = getelementptr inbounds nuw %struct.repository, ptr %75, i32 0, i32 3
  %77 = load ptr, ptr %76, align 8, !tbaa !20
  %78 = getelementptr inbounds nuw %struct.parsed_object_pool, ptr %77, i32 0, i32 11
  %79 = load i32, ptr %78, align 4, !tbaa !46
  %80 = add nsw i32 %79, 1
  %81 = load ptr, ptr %5, align 8, !tbaa !4
  %82 = getelementptr inbounds nuw %struct.repository, ptr %81, i32 0, i32 3
  %83 = load ptr, ptr %82, align 8, !tbaa !20
  %84 = getelementptr inbounds nuw %struct.parsed_object_pool, ptr %83, i32 0, i32 10
  store i32 %80, ptr %84, align 8, !tbaa !61
  br label %98

85:                                               ; preds = %58
  %86 = load ptr, ptr %5, align 8, !tbaa !4
  %87 = getelementptr inbounds nuw %struct.repository, ptr %86, i32 0, i32 3
  %88 = load ptr, ptr %87, align 8, !tbaa !20
  %89 = getelementptr inbounds nuw %struct.parsed_object_pool, ptr %88, i32 0, i32 10
  %90 = load i32, ptr %89, align 8, !tbaa !61
  %91 = add nsw i32 %90, 16
  %92 = mul nsw i32 %91, 3
  %93 = sdiv i32 %92, 2
  %94 = load ptr, ptr %5, align 8, !tbaa !4
  %95 = getelementptr inbounds nuw %struct.repository, ptr %94, i32 0, i32 3
  %96 = load ptr, ptr %95, align 8, !tbaa !20
  %97 = getelementptr inbounds nuw %struct.parsed_object_pool, ptr %96, i32 0, i32 10
  store i32 %93, ptr %97, align 8, !tbaa !61
  br label %98

98:                                               ; preds = %85, %74
  %99 = load ptr, ptr %5, align 8, !tbaa !4
  %100 = getelementptr inbounds nuw %struct.repository, ptr %99, i32 0, i32 3
  %101 = load ptr, ptr %100, align 8, !tbaa !20
  %102 = getelementptr inbounds nuw %struct.parsed_object_pool, ptr %101, i32 0, i32 9
  %103 = load ptr, ptr %102, align 8, !tbaa !39
  %104 = load ptr, ptr %5, align 8, !tbaa !4
  %105 = getelementptr inbounds nuw %struct.repository, ptr %104, i32 0, i32 3
  %106 = load ptr, ptr %105, align 8, !tbaa !20
  %107 = getelementptr inbounds nuw %struct.parsed_object_pool, ptr %106, i32 0, i32 10
  %108 = load i32, ptr %107, align 8, !tbaa !61
  %109 = sext i32 %108 to i64
  %110 = call i64 @st_mult(i64 noundef 8, i64 noundef %109)
  %111 = call ptr @xrealloc(ptr noundef %103, i64 noundef %110)
  %112 = load ptr, ptr %5, align 8, !tbaa !4
  %113 = getelementptr inbounds nuw %struct.repository, ptr %112, i32 0, i32 3
  %114 = load ptr, ptr %113, align 8, !tbaa !20
  %115 = getelementptr inbounds nuw %struct.parsed_object_pool, ptr %114, i32 0, i32 9
  store ptr %111, ptr %115, align 8, !tbaa !39
  br label %116

116:                                              ; preds = %98, %45
  br label %117

117:                                              ; preds = %116
  br label %118

118:                                              ; preds = %117
  %119 = load ptr, ptr %5, align 8, !tbaa !4
  %120 = getelementptr inbounds nuw %struct.repository, ptr %119, i32 0, i32 3
  %121 = load ptr, ptr %120, align 8, !tbaa !20
  %122 = getelementptr inbounds nuw %struct.parsed_object_pool, ptr %121, i32 0, i32 11
  %123 = load i32, ptr %122, align 4, !tbaa !46
  %124 = add nsw i32 %123, 1
  store i32 %124, ptr %122, align 4, !tbaa !46
  %125 = load i32, ptr %8, align 4, !tbaa !11
  %126 = load ptr, ptr %5, align 8, !tbaa !4
  %127 = getelementptr inbounds nuw %struct.repository, ptr %126, i32 0, i32 3
  %128 = load ptr, ptr %127, align 8, !tbaa !20
  %129 = getelementptr inbounds nuw %struct.parsed_object_pool, ptr %128, i32 0, i32 11
  %130 = load i32, ptr %129, align 4, !tbaa !46
  %131 = icmp slt i32 %125, %130
  br i1 %131, label %132, label %160

132:                                              ; preds = %118
  %133 = load ptr, ptr %5, align 8, !tbaa !4
  %134 = getelementptr inbounds nuw %struct.repository, ptr %133, i32 0, i32 3
  %135 = load ptr, ptr %134, align 8, !tbaa !20
  %136 = getelementptr inbounds nuw %struct.parsed_object_pool, ptr %135, i32 0, i32 9
  %137 = load ptr, ptr %136, align 8, !tbaa !39
  %138 = load i32, ptr %8, align 4, !tbaa !11
  %139 = sext i32 %138 to i64
  %140 = getelementptr inbounds ptr, ptr %137, i64 %139
  %141 = getelementptr inbounds ptr, ptr %140, i64 1
  %142 = load ptr, ptr %5, align 8, !tbaa !4
  %143 = getelementptr inbounds nuw %struct.repository, ptr %142, i32 0, i32 3
  %144 = load ptr, ptr %143, align 8, !tbaa !20
  %145 = getelementptr inbounds nuw %struct.parsed_object_pool, ptr %144, i32 0, i32 9
  %146 = load ptr, ptr %145, align 8, !tbaa !39
  %147 = load i32, ptr %8, align 4, !tbaa !11
  %148 = sext i32 %147 to i64
  %149 = getelementptr inbounds ptr, ptr %146, i64 %148
  %150 = load ptr, ptr %5, align 8, !tbaa !4
  %151 = getelementptr inbounds nuw %struct.repository, ptr %150, i32 0, i32 3
  %152 = load ptr, ptr %151, align 8, !tbaa !20
  %153 = getelementptr inbounds nuw %struct.parsed_object_pool, ptr %152, i32 0, i32 11
  %154 = load i32, ptr %153, align 4, !tbaa !46
  %155 = load i32, ptr %8, align 4, !tbaa !11
  %156 = sub nsw i32 %154, %155
  %157 = sub nsw i32 %156, 1
  %158 = sext i32 %157 to i64
  %159 = mul i64 %158, 8
  call void @llvm.memmove.p0.p0.i64(ptr align 8 %141, ptr align 8 %149, i64 %159, i1 false)
  br label %160

160:                                              ; preds = %132, %118
  %161 = load ptr, ptr %6, align 8, !tbaa !50
  %162 = load ptr, ptr %5, align 8, !tbaa !4
  %163 = getelementptr inbounds nuw %struct.repository, ptr %162, i32 0, i32 3
  %164 = load ptr, ptr %163, align 8, !tbaa !20
  %165 = getelementptr inbounds nuw %struct.parsed_object_pool, ptr %164, i32 0, i32 9
  %166 = load ptr, ptr %165, align 8, !tbaa !39
  %167 = load i32, ptr %8, align 4, !tbaa !11
  %168 = sext i32 %167 to i64
  %169 = getelementptr inbounds ptr, ptr %166, i64 %168
  store ptr %161, ptr %169, align 8, !tbaa !50
  %170 = load ptr, ptr %5, align 8, !tbaa !4
  %171 = load ptr, ptr %6, align 8, !tbaa !50
  %172 = getelementptr inbounds nuw %struct.commit_graft, ptr %171, i32 0, i32 0
  call void @unparse_commit(ptr noundef %170, ptr noundef %172)
  store i32 0, ptr %4, align 4
  store i32 1, ptr %9, align 4
  br label %173

173:                                              ; preds = %160, %40
  call void @llvm.lifetime.end.p0(i64 4, ptr %8) #11
  %174 = load i32, ptr %4, align 4
  ret i32 %174
}