; Function Attrs: nounwind uwtable
define dso_local range(i32 0, 2) i32 @register_commit_graft(ptr noundef %0, ptr noundef %1, i32 noundef %2) local_unnamed_addr #0 {
  %4 = getelementptr inbounds nuw i8, ptr %0, i64 24
  %5 = load ptr, ptr %4, align 8, !tbaa !12
  %6 = getelementptr inbounds nuw i8, ptr %5, i64 64
  %7 = load ptr, ptr %6, align 8, !tbaa !32
  %8 = getelementptr inbounds nuw i8, ptr %5, i64 76
  %9 = load i32, ptr %8, align 4, !tbaa !39
  %10 = sext i32 %9 to i64
  %11 = tail call i32 @oid_pos(ptr noundef %1, ptr noundef %7, i64 noundef %10, ptr noundef nonnull @commit_graft_oid_access) #24
  %12 = icmp sgt i32 %11, -1
  br i1 %12, label %13, label %26

13:                                               ; preds = %3
  %.not44 = icmp eq i32 %2, 0
  br i1 %.not44, label %15, label %14

14:                                               ; preds = %13
  tail call void @free(ptr noundef %1) #24
  br label %unparse_commit.exit

15:                                               ; preds = %13
  %16 = load ptr, ptr %4, align 8, !tbaa !12
  %17 = getelementptr inbounds nuw i8, ptr %16, i64 64
  %18 = load ptr, ptr %17, align 8, !tbaa !32
  %19 = zext nneg i32 %11 to i64
  %20 = getelementptr inbounds nuw ptr, ptr %18, i64 %19
  %21 = load ptr, ptr %20, align 8, !tbaa !40
  tail call void @free(ptr noundef %21) #24
  %22 = load ptr, ptr %4, align 8, !tbaa !12
  %23 = getelementptr inbounds nuw i8, ptr %22, i64 64
  %24 = load ptr, ptr %23, align 8, !tbaa !32
  %25 = getelementptr inbounds nuw ptr, ptr %24, i64 %19
  store ptr %1, ptr %25, align 8, !tbaa !40
  br label %unparse_commit.exit

26:                                               ; preds = %3
  %27 = xor i32 %11, -1
  %28 = load ptr, ptr %4, align 8, !tbaa !12
  %29 = getelementptr inbounds nuw i8, ptr %28, i64 76
  %30 = load i32, ptr %29, align 4, !tbaa !39
  %31 = getelementptr inbounds nuw i8, ptr %28, i64 72
  %32 = load i32, ptr %31, align 8, !tbaa !53
  %.not = icmp slt i32 %30, %32
  br i1 %.not, label %46, label %33

33:                                               ; preds = %26
  %34 = add nsw i32 %30, 1
  %35 = mul i32 %32, 3
  %36 = add i32 %35, 48
  %37 = sdiv i32 %36, 2
  %.not42 = icmp sgt i32 %37, %30
  %. = select i1 %.not42, i32 %37, i32 %34
  store i32 %., ptr %31, align 8, !tbaa !53
  %38 = sext i32 %. to i64
  %mul.ov.i = icmp slt i32 %., 0
  br i1 %mul.ov.i, label %39, label %st_mult.exit

39:                                               ; preds = %33
  tail call void (ptr, ...) @die(ptr noundef nonnull @.str.37, i64 noundef 8, i64 noundef range(i64 -2147483648, 4294967296) %38) #25
  unreachable

st_mult.exit:                                     ; preds = %33
  %40 = getelementptr inbounds nuw i8, ptr %28, i64 64
  %41 = load ptr, ptr %40, align 8, !tbaa !32
  %42 = shl nuw nsw i64 %38, 3
  %43 = tail call ptr @xrealloc(ptr noundef %41, i64 noundef %42) #24
  %44 = load ptr, ptr %4, align 8, !tbaa !12
  %45 = getelementptr inbounds nuw i8, ptr %44, i64 64
  store ptr %43, ptr %45, align 8, !tbaa !32
  %.phi.trans.insert = getelementptr inbounds nuw i8, ptr %44, i64 76
  %.pre = load i32, ptr %.phi.trans.insert, align 4, !tbaa !39
  br label %46

46:                                               ; preds = %st_mult.exit, %26
  %47 = phi i32 [ %.pre, %st_mult.exit ], [ %30, %26 ]
  %48 = phi ptr [ %44, %st_mult.exit ], [ %28, %26 ]
  %49 = getelementptr inbounds nuw i8, ptr %48, i64 76
  %50 = add nsw i32 %47, 1
  store i32 %50, ptr %49, align 4, !tbaa !39
  %.not43 = icmp slt i32 %47, %27
  br i1 %.not43, label %._crit_edge, label %51

._crit_edge:                                      ; preds = %46
  %.pre46 = zext nneg i32 %27 to i64
  br label %60

51:                                               ; preds = %46
  %52 = getelementptr inbounds nuw i8, ptr %48, i64 64
  %53 = load ptr, ptr %52, align 8, !tbaa !32
  %54 = zext nneg i32 %27 to i64
  %55 = getelementptr inbounds nuw ptr, ptr %53, i64 %54
  %56 = getelementptr inbounds nuw i8, ptr %55, i64 8
  %57 = add nsw i32 %50, %11
  %58 = sext i32 %57 to i64
  %59 = shl nsw i64 %58, 3
  tail call void @llvm.memmove.p0.p0.i64(ptr nonnull align 8 %56, ptr align 8 %55, i64 %59, i1 false)
  %.pre45 = load ptr, ptr %4, align 8, !tbaa !12
  br label %60

60:                                               ; preds = %._crit_edge, %51
  %.pre-phi = phi i64 [ %.pre46, %._crit_edge ], [ %54, %51 ]
  %61 = phi ptr [ %48, %._crit_edge ], [ %.pre45, %51 ]
  %62 = getelementptr inbounds nuw i8, ptr %61, i64 64
  %63 = load ptr, ptr %62, align 8, !tbaa !32
  %64 = getelementptr inbounds nuw ptr, ptr %63, i64 %.pre-phi
  store ptr %1, ptr %64, align 8, !tbaa !40
  %65 = tail call ptr @lookup_object(ptr noundef nonnull %0, ptr noundef %1) #24
  %.not.i.i = icmp eq ptr %65, null
  br i1 %.not.i.i, label %66, label %69

66:                                               ; preds = %60
  %67 = tail call ptr @alloc_commit_node(ptr noundef nonnull %0) #24
  %68 = tail call ptr @create_object(ptr noundef nonnull %0, ptr noundef %1, ptr noundef %67) #24
  br label %lookup_commit.exit.i

69:                                               ; preds = %60
  %70 = tail call ptr @object_as_type(ptr noundef nonnull %65, i32 noundef 1, i32 noundef 0) #24
  br label %lookup_commit.exit.i

lookup_commit.exit.i:                             ; preds = %69, %66
  %.0.i.i = phi ptr [ %70, %69 ], [ %68, %66 ]
  %71 = load i32, ptr %.0.i.i, align 8
  %72 = and i32 %71, 1
  %.not.i = icmp eq i32 %72, 0
  br i1 %.not.i, label %unparse_commit.exit, label %73

73:                                               ; preds = %lookup_commit.exit.i
  %74 = getelementptr inbounds nuw i8, ptr %.0.i.i, i64 48
  %75 = load ptr, ptr %74, align 8, !tbaa !42
  %.not2.i.i = icmp eq ptr %75, null
  br i1 %.not2.i.i, label %free_commit_list.exit.i, label %pop_commit.exit.i.i

pop_commit.exit.i.i:                              ; preds = %73, %pop_commit.exit.i.i
  %.03.i.i = phi ptr [ %77, %pop_commit.exit.i.i ], [ %75, %73 ]
  %76 = getelementptr inbounds nuw i8, ptr %.03.i.i, i64 8
  %77 = load ptr, ptr %76, align 8, !tbaa !48
  tail call void @free(ptr noundef nonnull %.03.i.i) #24
  %.not.i6.i = icmp eq ptr %77, null
  br i1 %.not.i6.i, label %free_commit_list.exit.loopexit.i, label %pop_commit.exit.i.i, !llvm.loop !51

free_commit_list.exit.loopexit.i:                 ; preds = %pop_commit.exit.i.i
  %.pre.i = load i32, ptr %.0.i.i, align 8
  br label %free_commit_list.exit.i

free_commit_list.exit.i:                          ; preds = %free_commit_list.exit.loopexit.i, %73
  %78 = phi i32 [ %.pre.i, %free_commit_list.exit.loopexit.i ], [ %71, %73 ]
  store ptr null, ptr %74, align 8, !tbaa !42
  %79 = and i32 %78, -2
  store i32 %79, ptr %.0.i.i, align 8
  br label %unparse_commit.exit

unparse_commit.exit:                              ; preds = %free_commit_list.exit.i, %lookup_commit.exit.i, %14, %15
  %.0 = phi i32 [ 1, %15 ], [ 1, %14 ], [ 0, %lookup_commit.exit.i ], [ 0, %free_commit_list.exit.i ]
  ret i32 %.0
}